; Function Attrs: mustprogress uwtable
define void @_ZNK8QuantLib18TripleBandLinearOp3addERKS0_(ptr dead_on_unwind noalias writable sret(%"class.QuantLib::TripleBandLinearOp") align 8 %agg.result, ptr noundef nonnull align 8 dereferenceable(80) %this, ptr nocapture noundef nonnull readonly align 8 dereferenceable(80) %m) local_unnamed_addr #3 align 2 personality ptr @__gxx_personality_v0 {
entry:
  %direction_ = getelementptr inbounds nuw i8, ptr %this, i64 8
  %0 = load i64, ptr %direction_, align 8, !tbaa !6
  %mesher_ = getelementptr inbounds nuw i8, ptr %this, i64 64
  tail call void @_ZN8QuantLib18TripleBandLinearOpC1EmRKN5boost10shared_ptrINS_9FdmMesherEEE(ptr noundef nonnull align 8 dereferenceable(80) %agg.result, i64 noundef %0, ptr noundef nonnull align 8 dereferenceable(16) %mesher_)
  %1 = load ptr, ptr %mesher_, align 8, !tbaa !26
  %cmp.not.i = icmp eq ptr %1, null
  br i1 %cmp.not.i, label %cond.false.i, label %invoke.cont, !prof !27

cond.false.i:                                     ; preds = %entry
  invoke void @_ZN5boost16assertion_failedEPKcS1_S1_l(ptr noundef nonnull @.str.8, ptr noundef nonnull @__PRETTY_FUNCTION__._ZNK5boost10shared_ptrIN8QuantLib9FdmMesherEEptEv, ptr noundef nonnull @.str.9, i64 noundef 784)
          to label %.noexc unwind label %lpad

.noexc:                                           ; preds = %cond.false.i
  %.pre.i = load ptr, ptr %mesher_, align 8, !tbaa !26
  br label %invoke.cont

invoke.cont:                                      ; preds = %.noexc, %entry
  %2 = phi ptr [ %1, %entry ], [ %.pre.i, %.noexc ]
  %layout_.i = getelementptr inbounds nuw i8, ptr %2, i64 8
  %3 = load ptr, ptr %layout_.i, align 8, !tbaa !28
  %cmp.not.i13 = icmp eq ptr %3, null
  br i1 %cmp.not.i13, label %cond.false.i14, label %invoke.cont5, !prof !27

cond.false.i14:                                   ; preds = %invoke.cont
  invoke void @_ZN5boost16assertion_failedEPKcS1_S1_l(ptr noundef nonnull @.str.8, ptr noundef nonnull @__PRETTY_FUNCTION__._ZNK5boost10shared_ptrIN8QuantLib17FdmLinearOpLayoutEEptEv, ptr noundef nonnull @.str.9, i64 noundef 784)
          to label %.noexc16 unwind label %lpad

.noexc16:                                         ; preds = %cond.false.i14
  %.pre.i15 = load ptr, ptr %layout_.i, align 8, !tbaa !28
  br label %invoke.cont5

invoke.cont5:                                     ; preds = %.noexc16, %invoke.cont
  %4 = phi ptr [ %3, %invoke.cont ], [ %.pre.i15, %.noexc16 ]
  %5 = load i64, ptr %4, align 8, !tbaa !30
  %cmp25.not = icmp eq i64 %5, 0
  br i1 %cmp25.not, label %nrvo.skipdtor, label %for.body.lr.ph

for.body.lr.ph:                                   ; preds = %invoke.cont5
  %lower_ = getelementptr inbounds nuw i8, ptr %this, i64 40
  %6 = load ptr, ptr %lower_, align 8, !tbaa !36
  %lower_12 = getelementptr inbounds nuw i8, ptr %m, i64 40
  %7 = load ptr, ptr %lower_12, align 8, !tbaa !36
  %lower_15 = getelementptr inbounds nuw i8, ptr %agg.result, i64 40
  %8 = load ptr, ptr %lower_15, align 8, !tbaa !36
  %diag_ = getelementptr inbounds nuw i8, ptr %this, i64 48
  %9 = load ptr, ptr %diag_, align 8, !tbaa !36
  %diag_20 = getelementptr inbounds nuw i8, ptr %m, i64 48
  %10 = load ptr, ptr %diag_20, align 8, !tbaa !36
  %diag_24 = getelementptr inbounds nuw i8, ptr %agg.result, i64 48
  %11 = load ptr, ptr %diag_24, align 8, !tbaa !36
  %upper_ = getelementptr inbounds nuw i8, ptr %this, i64 56
  %12 = load ptr, ptr %upper_, align 8, !tbaa !36
  %upper_29 = getelementptr inbounds nuw i8, ptr %m, i64 56
  %13 = load ptr, ptr %upper_29, align 8, !tbaa !36
  %upper_33 = getelementptr inbounds nuw i8, ptr %agg.result, i64 56
  %14 = load ptr, ptr %upper_33, align 8, !tbaa !36
  br label %for.body

lpad:                                             ; preds = %cond.false.i14, %cond.false.i
  %15 = landingpad { ptr, i32 }
          cleanup
  tail call void @_ZN8QuantLib18TripleBandLinearOpD2Ev(ptr noundef nonnull align 8 dereferenceable(80) %agg.result) #25
  resume { ptr, i32 } %15

for.body:                                         ; preds = %for.body.lr.ph, %for.body
  %i.026 = phi i64 [ 0, %for.body.lr.ph ], [ %inc, %for.body ]
  %arrayidx.i = getelementptr inbounds nuw double, ptr %6, i64 %i.026
  %16 = load double, ptr %arrayidx.i, align 8, !tbaa !56
  %arrayidx.i17 = getelementptr inbounds nuw double, ptr %7, i64 %i.026
  %17 = load double, ptr %arrayidx.i17, align 8, !tbaa !56
  %add = fadd double %16, %17
  %arrayidx.i18 = getelementptr inbounds nuw double, ptr %8, i64 %i.026
  store double %add, ptr %arrayidx.i18, align 8, !tbaa !56
  %arrayidx.i19 = getelementptr inbounds nuw double, ptr %9, i64 %i.026
  %18 = load double, ptr %arrayidx.i19, align 8, !tbaa !56
  %arrayidx.i20 = getelementptr inbounds nuw double, ptr %10, i64 %i.026
  %19 = load double, ptr %arrayidx.i20, align 8, !tbaa !56
  %add23 = fadd double %18, %19
  %arrayidx.i21 = getelementptr inbounds nuw double, ptr %11, i64 %i.026
  store double %add23, ptr %arrayidx.i21, align 8, !tbaa !56
  %arrayidx.i22 = getelementptr inbounds nuw double, ptr %12, i64 %i.026
  %20 = load double, ptr %arrayidx.i22, align 8, !tbaa !56
  %arrayidx.i23 = getelementptr inbounds nuw double, ptr %13, i64 %i.026
  %21 = load double, ptr %arrayidx.i23, align 8, !tbaa !56
  %add32 = fadd double %20, %21
  %arrayidx.i24 = getelementptr inbounds nuw double, ptr %14, i64 %i.026
  store double %add32, ptr %arrayidx.i24, align 8, !tbaa !56
  %inc = add nuw i64 %i.026, 1
  %exitcond.not = icmp eq i64 %inc, %5
  br i1 %exitcond.not, label %nrvo.skipdtor, label %for.body, !llvm.loop !62

nrvo.skipdtor:                                    ; preds = %for.body, %invoke.cont5
  ret void
}